; Function Attrs: mustprogress nounwind uwtable
define dso_local void @_ZN6snappy11RawCompressEPKcmPcPm(ptr noundef %input, i64 noundef %input_length, ptr noundef %compressed, ptr nocapture noundef writeonly %compressed_length) local_unnamed_addr #2 {
entry:
  %reader = alloca %"class.snappy::ByteArraySource", align 8
  %writer = alloca %"class.snappy::UncheckedByteArraySink", align 8
  store ptr getelementptr inbounds ({ [7 x ptr] }, ptr @_ZTVN6snappy15ByteArraySourceE, i64 0, i32 0, i64 2), ptr %reader, align 8
  %ptr_.i = getelementptr inbounds i8, ptr %reader, i64 8
  store ptr %input, ptr %ptr_.i, align 8
  %left_.i = getelementptr inbounds i8, ptr %reader, i64 16
  store i64 %input_length, ptr %left_.i, align 8
  store ptr getelementptr inbounds ({ [8 x ptr] }, ptr @_ZTVN6snappy22UncheckedByteArraySinkE, i64 0, i32 0, i64 2), ptr %writer, align 8
  %dest_.i = getelementptr inbounds i8, ptr %writer, i64 8
  store ptr %compressed, ptr %dest_.i, align 8
  %call = call noundef i64 @_ZN6snappy8CompressEPNS_6SourceEPNS_4SinkE(ptr noundef nonnull %reader, ptr noundef nonnull %writer)
  %0 = load ptr, ptr %dest_.i, align 8
  %sub.ptr.lhs.cast = ptrtoint ptr %0 to i64
  %sub.ptr.rhs.cast = ptrtoint ptr %compressed to i64
  %sub.ptr.sub = sub i64 %sub.ptr.lhs.cast, %sub.ptr.rhs.cast
  store i64 %sub.ptr.sub, ptr %compressed_length, align 8
  call void @_ZN6snappy22UncheckedByteArraySinkD1Ev(ptr noundef nonnull align 8 dereferenceable(16) %writer) #19
  call void @_ZN6snappy15ByteArraySourceD1Ev(ptr noundef nonnull align 8 dereferenceable(24) %reader) #19
  ret void
}